; Function Attrs: nounwind uwtable
define hidden i32 @RSA_size(ptr noundef %rsa) local_unnamed_addr #0 {
entry:
  %0 = load ptr, ptr %rsa, align 8
  %size = getelementptr inbounds nuw i8, ptr %0, i64 32
  %1 = load ptr, ptr %size, align 8
  %tobool.not = icmp eq ptr %1, null
  br i1 %tobool.not, label %if.end, label %if.then

if.then:                                          ; preds = %entry
  %call = tail call i64 %1(ptr noundef nonnull %rsa) #9
  br label %return

if.end:                                           ; preds = %entry
  %call3 = tail call i64 @rsa_default_size(ptr noundef nonnull %rsa) #9
  br label %return

return:                                           ; preds = %if.end, %if.then
  %retval.0.in = phi i64 [ %call, %if.then ], [ %call3, %if.end ]
  %retval.0 = trunc i64 %retval.0.in to i32
  ret i32 %retval.0
}